; Function Attrs: inlinehint mustprogress nounwind uwtable
define internal fastcc void @_ZN8QuantLib12_GLOBAL__N_124ImpliedSwaptionVolHelperD2Ev(ptr nocapture noundef nonnull readonly align 8 dereferenceable(64) %this) unnamed_addr #4 align 2 personality ptr @__gxx_personality_v0 {
entry:
  %pn.i = getelementptr inbounds nuw i8, ptr %this, i64 48
  %0 = load ptr, ptr %pn.i, align 8, !tbaa !43
  %cmp.not.i.i = icmp eq ptr %0, null
  br i1 %cmp.not.i.i, label %_ZN5boost10shared_ptrIN8QuantLib11SimpleQuoteEED2Ev.exit, label %if.then.i.i

if.then.i.i:                                      ; preds = %entry
  %use_count_.i.i.i = getelementptr inbounds nuw i8, ptr %0, i64 8
  %1 = atomicrmw sub ptr %use_count_.i.i.i, i32 1 acq_rel, align 4
  %cmp.i.i.i = icmp eq i32 %1, 1
  br i1 %cmp.i.i.i, label %if.then.i.i.i, label %_ZN5boost10shared_ptrIN8QuantLib11SimpleQuoteEED2Ev.exit

if.then.i.i.i:                                    ; preds = %if.then.i.i
  %vtable.i.i.i = load ptr, ptr %0, align 8, !tbaa !33
  %vfn.i.i.i = getelementptr inbounds i8, ptr %vtable.i.i.i, i64 16
  %2 = load ptr, ptr %vfn.i.i.i, align 8
  invoke void %2(ptr noundef nonnull align 8 dereferenceable(16) %0)
          to label %.noexc.i.i unwind label %terminate.lpad.i.i

.noexc.i.i:                                       ; preds = %if.then.i.i.i
  %weak_count_.i.i.i.i = getelementptr inbounds nuw i8, ptr %0, i64 12
  %3 = atomicrmw sub ptr %weak_count_.i.i.i.i, i32 1 acq_rel, align 4
  %cmp.i.i.i.i = icmp eq i32 %3, 1
  br i1 %cmp.i.i.i.i, label %if.then.i.i.i.i, label %_ZN5boost10shared_ptrIN8QuantLib11SimpleQuoteEED2Ev.exit

if.then.i.i.i.i:                                  ; preds = %.noexc.i.i
  %vtable.i.i.i.i = load ptr, ptr %0, align 8, !tbaa !33
  %vfn.i.i.i.i = getelementptr inbounds i8, ptr %vtable.i.i.i.i, i64 24
  %4 = load ptr, ptr %vfn.i.i.i.i, align 8
  invoke void %4(ptr noundef nonnull align 8 dereferenceable(16) %0)
          to label %_ZN5boost10shared_ptrIN8QuantLib11SimpleQuoteEED2Ev.exit unwind label %terminate.lpad.i.i

terminate.lpad.i.i:                               ; preds = %if.then.i.i.i.i, %if.then.i.i.i
  %5 = landingpad { ptr, i32 }
          catch ptr null
  %6 = extractvalue { ptr, i32 } %5, 0
  tail call void @__clang_call_terminate(ptr %6) #29
  unreachable

_ZN5boost10shared_ptrIN8QuantLib11SimpleQuoteEED2Ev.exit: ; preds = %entry, %if.then.i.i, %.noexc.i.i, %if.then.i.i.i.i
  %pn.i.i = getelementptr inbounds nuw i8, ptr %this, i64 24
  %7 = load ptr, ptr %pn.i.i, align 8, !tbaa !43
  %cmp.not.i.i.i = icmp eq ptr %7, null
  br i1 %cmp.not.i.i.i, label %_ZN8QuantLib6HandleINS_18YieldTermStructureEED2Ev.exit, label %if.then.i.i.i1

if.then.i.i.i1:                                   ; preds = %_ZN5boost10shared_ptrIN8QuantLib11SimpleQuoteEED2Ev.exit
  %use_count_.i.i.i.i = getelementptr inbounds nuw i8, ptr %7, i64 8
  %8 = atomicrmw sub ptr %use_count_.i.i.i.i, i32 1 acq_rel, align 4
  %cmp.i.i.i.i2 = icmp eq i32 %8, 1
  br i1 %cmp.i.i.i.i2, label %if.then.i.i.i.i3, label %_ZN8QuantLib6HandleINS_18YieldTermStructureEED2Ev.exit

if.then.i.i.i.i3:                                 ; preds = %if.then.i.i.i1
  %vtable.i.i.i.i4 = load ptr, ptr %7, align 8, !tbaa !33
  %vfn.i.i.i.i5 = getelementptr inbounds i8, ptr %vtable.i.i.i.i4, i64 16
  %9 = load ptr, ptr %vfn.i.i.i.i5, align 8
  invoke void %9(ptr noundef nonnull align 8 dereferenceable(16) %7)
          to label %.noexc.i.i.i unwind label %terminate.lpad.i.i.i

.noexc.i.i.i:                                     ; preds = %if.then.i.i.i.i3
  %weak_count_.i.i.i.i.i = getelementptr inbounds nuw i8, ptr %7, i64 12
  %10 = atomicrmw sub ptr %weak_count_.i.i.i.i.i, i32 1 acq_rel, align 4
  %cmp.i.i.i.i.i = icmp eq i32 %10, 1
  br i1 %cmp.i.i.i.i.i, label %if.then.i.i.i.i.i, label %_ZN8QuantLib6HandleINS_18YieldTermStructureEED2Ev.exit

if.then.i.i.i.i.i:                                ; preds = %.noexc.i.i.i
  %vtable.i.i.i.i.i = load ptr, ptr %7, align 8, !tbaa !33
  %vfn.i.i.i.i.i = getelementptr inbounds i8, ptr %vtable.i.i.i.i.i, i64 24
  %11 = load ptr, ptr %vfn.i.i.i.i.i, align 8
  invoke void %11(ptr noundef nonnull align 8 dereferenceable(16) %7)
          to label %_ZN8QuantLib6HandleINS_18YieldTermStructureEED2Ev.exit unwind label %terminate.lpad.i.i.i

terminate.lpad.i.i.i:                             ; preds = %if.then.i.i.i.i.i, %if.then.i.i.i.i3
  %12 = landingpad { ptr, i32 }
          catch ptr null
  %13 = extractvalue { ptr, i32 } %12, 0
  tail call void @__clang_call_terminate(ptr %13) #29
  unreachable

_ZN8QuantLib6HandleINS_18YieldTermStructureEED2Ev.exit: ; preds = %_ZN5boost10shared_ptrIN8QuantLib11SimpleQuoteEED2Ev.exit, %if.then.i.i.i1, %.noexc.i.i.i, %if.then.i.i.i.i.i
  %pn.i6 = getelementptr inbounds nuw i8, ptr %this, i64 8
  %14 = load ptr, ptr %pn.i6, align 8, !tbaa !43
  %cmp.not.i.i7 = icmp eq ptr %14, null
  br i1 %cmp.not.i.i7, label %_ZN5boost10shared_ptrIN8QuantLib13PricingEngineEED2Ev.exit, label %if.then.i.i8

if.then.i.i8:                                     ; preds = %_ZN8QuantLib6HandleINS_18YieldTermStructureEED2Ev.exit
  %use_count_.i.i.i9 = getelementptr inbounds nuw i8, ptr %14, i64 8
  %15 = atomicrmw sub ptr %use_count_.i.i.i9, i32 1 acq_rel, align 4
  %cmp.i.i.i10 = icmp eq i32 %15, 1
  br i1 %cmp.i.i.i10, label %if.then.i.i.i11, label %_ZN5boost10shared_ptrIN8QuantLib13PricingEngineEED2Ev.exit

if.then.i.i.i11:                                  ; preds = %if.then.i.i8
  %vtable.i.i.i12 = load ptr, ptr %14, align 8, !tbaa !33
  %vfn.i.i.i13 = getelementptr inbounds i8, ptr %vtable.i.i.i12, i64 16
  %16 = load ptr, ptr %vfn.i.i.i13, align 8
  invoke void %16(ptr noundef nonnull align 8 dereferenceable(16) %14)
          to label %.noexc.i.i15 unwind label %terminate.lpad.i.i14

.noexc.i.i15:                                     ; preds = %if.then.i.i.i11
  %weak_count_.i.i.i.i16 = getelementptr inbounds nuw i8, ptr %14, i64 12
  %17 = atomicrmw sub ptr %weak_count_.i.i.i.i16, i32 1 acq_rel, align 4
  %cmp.i.i.i.i17 = icmp eq i32 %17, 1
  br i1 %cmp.i.i.i.i17, label %if.then.i.i.i.i18, label %_ZN5boost10shared_ptrIN8QuantLib13PricingEngineEED2Ev.exit

if.then.i.i.i.i18:                                ; preds = %.noexc.i.i15
  %vtable.i.i.i.i19 = load ptr, ptr %14, align 8, !tbaa !33
  %vfn.i.i.i.i20 = getelementptr inbounds i8, ptr %vtable.i.i.i.i19, i64 24
  %18 = load ptr, ptr %vfn.i.i.i.i20, align 8
  invoke void %18(ptr noundef nonnull align 8 dereferenceable(16) %14)
          to label %_ZN5boost10shared_ptrIN8QuantLib13PricingEngineEED2Ev.exit unwind label %terminate.lpad.i.i14

terminate.lpad.i.i14:                             ; preds = %if.then.i.i.i.i18, %if.then.i.i.i11
  %19 = landingpad { ptr, i32 }
          catch ptr null
  %20 = extractvalue { ptr, i32 } %19, 0
  tail call void @__clang_call_terminate(ptr %20) #29
  unreachable

_ZN5boost10shared_ptrIN8QuantLib13PricingEngineEED2Ev.exit: ; preds = %_ZN8QuantLib6HandleINS_18YieldTermStructureEED2Ev.exit, %if.then.i.i8, %.noexc.i.i15, %if.then.i.i.i.i18
  ret void
}